; Function Attrs: mustprogress uwtable
define dso_local void @_ZN7V3Graph17parallelismReportESt8functionIFmPK13V3GraphVertexEE(ptr dead_on_unwind noalias writable sret(%"class.V3Graph::ParallelismReport") align 8 %0, ptr noundef nonnull align 8 dereferenceable(24) %1, ptr noundef nonnull %2) #3 align 2 personality ptr @__gxx_personality_v0 {
  %4 = alloca %"class.std::function.14", align 8
  call void @_ZNSt8functionIFjPK13V3GraphVertexEEC2IRS_IFmS2_EEvEEOT_(ptr noundef nonnull align 8 dereferenceable(32) %4, ptr noundef nonnull align 8 dereferenceable(32) %2)
  invoke void @_ZN25GraphAlgParallelismReport5applyER7V3GraphSt8functionIFjPK13V3GraphVertexEE(ptr dead_on_unwind writable sret(%"class.V3Graph::ParallelismReport") align 8 %0, ptr noundef nonnull align 8 dereferenceable(24) %1, ptr noundef nonnull %4)
          to label %5 unwind label %13

5:                                                ; preds = %3
  %6 = getelementptr inbounds i8, ptr %4, i64 16
  %7 = load ptr, ptr %6, align 8
  %.not.i.i = icmp eq ptr %7, null
  br i1 %.not.i.i, label %_ZNSt8functionIFjPK13V3GraphVertexEED2Ev.exit, label %8

8:                                                ; preds = %5
  %9 = invoke noundef zeroext i1 %7(ptr noundef nonnull align 8 dereferenceable(16) %4, ptr noundef nonnull align 8 dereferenceable(16) %4, i32 noundef 3)
          to label %_ZNSt8functionIFjPK13V3GraphVertexEED2Ev.exit unwind label %10

10:                                               ; preds = %8
  %11 = landingpad { ptr, i32 }
          catch ptr null
  %12 = extractvalue { ptr, i32 } %11, 0
  call void @__clang_call_terminate(ptr %12) #23
  unreachable

_ZNSt8functionIFjPK13V3GraphVertexEED2Ev.exit:    ; preds = %5, %8
  ret void

13:                                               ; preds = %3
  %14 = landingpad { ptr, i32 }
          cleanup
  %15 = getelementptr inbounds i8, ptr %4, i64 16
  %16 = load ptr, ptr %15, align 8
  %.not.i.i2 = icmp eq ptr %16, null
  br i1 %.not.i.i2, label %_ZNSt8functionIFjPK13V3GraphVertexEED2Ev.exit3, label %17

17:                                               ; preds = %13
  %18 = invoke noundef zeroext i1 %16(ptr noundef nonnull align 8 dereferenceable(16) %4, ptr noundef nonnull align 8 dereferenceable(16) %4, i32 noundef 3)
          to label %_ZNSt8functionIFjPK13V3GraphVertexEED2Ev.exit3 unwind label %19

19:                                               ; preds = %17
  %20 = landingpad { ptr, i32 }
          catch ptr null
  %21 = extractvalue { ptr, i32 } %20, 0
  call void @__clang_call_terminate(ptr %21) #23
  unreachable

_ZNSt8functionIFjPK13V3GraphVertexEED2Ev.exit3:   ; preds = %13, %17
  resume { ptr, i32 } %14
}